; Function Attrs: nounwind uwtable
define ptr @l_Lean_instantiateMVars___at_Lean_Elab_Tactic_BVDecide_Frontend_ReifiedBVExpr_bitVecAtom___spec__1___boxed(ptr noundef %0, ptr noundef %1, ptr noundef %2, ptr noundef %3, ptr noundef %4, ptr noundef %5, ptr noundef %6) local_unnamed_addr #0 {
  %8 = tail call ptr @l_Lean_instantiateMVars___at_Lean_Elab_Tactic_BVDecide_Frontend_ReifiedBVExpr_bitVecAtom___spec__1(ptr noundef %0, ptr poison, ptr poison, ptr noundef %3, ptr poison, ptr poison, ptr noundef %6)
  %9 = ptrtoint ptr %5 to i64
  %10 = and i64 %9, 1
  %.not = icmp eq i64 %10, 0
  br i1 %.not, label %11, label %lean_dec.exit16

11:                                               ; preds = %7
  %12 = load i32, ptr %5, align 4, !tbaa !4
  %13 = icmp sgt i32 %12, 1
  br i1 %13, label %14, label %16, !prof !11

14:                                               ; preds = %11
  %15 = add nsw i32 %12, -1
  store i32 %15, ptr %5, align 4, !tbaa !4
  br label %lean_dec.exit16

16:                                               ; preds = %11
  %.not.i = icmp eq i32 %12, 0
  br i1 %.not.i, label %lean_dec.exit16, label %17

17:                                               ; preds = %16
  tail call void @lean_dec_ref_cold(ptr noundef nonnull %5) #3
  br label %lean_dec.exit16

lean_dec.exit16:                                  ; preds = %17, %16, %14, %7
  %18 = ptrtoint ptr %4 to i64
  %19 = and i64 %18, 1
  %.not25 = icmp eq i64 %19, 0
  br i1 %.not25, label %20, label %lean_dec.exit15

20:                                               ; preds = %lean_dec.exit16
  %21 = load i32, ptr %4, align 4, !tbaa !4
  %22 = icmp sgt i32 %21, 1
  br i1 %22, label %23, label %25, !prof !11

23:                                               ; preds = %20
  %24 = add nsw i32 %21, -1
  store i32 %24, ptr %4, align 4, !tbaa !4
  br label %lean_dec.exit15

25:                                               ; preds = %20
  %.not.i17 = icmp eq i32 %21, 0
  br i1 %.not.i17, label %lean_dec.exit15, label %26

26:                                               ; preds = %25
  tail call void @lean_dec_ref_cold(ptr noundef nonnull %4) #3
  br label %lean_dec.exit15

lean_dec.exit15:                                  ; preds = %26, %25, %23, %lean_dec.exit16
  %27 = ptrtoint ptr %3 to i64
  %28 = and i64 %27, 1
  %.not26 = icmp eq i64 %28, 0
  br i1 %.not26, label %29, label %lean_dec.exit14

29:                                               ; preds = %lean_dec.exit15
  %30 = load i32, ptr %3, align 4, !tbaa !4
  %31 = icmp sgt i32 %30, 1
  br i1 %31, label %32, label %34, !prof !11

32:                                               ; preds = %29
  %33 = add nsw i32 %30, -1
  store i32 %33, ptr %3, align 4, !tbaa !4
  br label %lean_dec.exit14

34:                                               ; preds = %29
  %.not.i19 = icmp eq i32 %30, 0
  br i1 %.not.i19, label %lean_dec.exit14, label %35

35:                                               ; preds = %34
  tail call void @lean_dec_ref_cold(ptr noundef nonnull %3) #3
  br label %lean_dec.exit14

lean_dec.exit14:                                  ; preds = %35, %34, %32, %lean_dec.exit15
  %36 = ptrtoint ptr %2 to i64
  %37 = and i64 %36, 1
  %.not27 = icmp eq i64 %37, 0
  br i1 %.not27, label %38, label %lean_dec.exit13

38:                                               ; preds = %lean_dec.exit14
  %39 = load i32, ptr %2, align 4, !tbaa !4
  %40 = icmp sgt i32 %39, 1
  br i1 %40, label %41, label %43, !prof !11

41:                                               ; preds = %38
  %42 = add nsw i32 %39, -1
  store i32 %42, ptr %2, align 4, !tbaa !4
  br label %lean_dec.exit13

43:                                               ; preds = %38
  %.not.i21 = icmp eq i32 %39, 0
  br i1 %.not.i21, label %lean_dec.exit13, label %44

44:                                               ; preds = %43
  tail call void @lean_dec_ref_cold(ptr noundef nonnull %2) #3
  br label %lean_dec.exit13

lean_dec.exit13:                                  ; preds = %44, %43, %41, %lean_dec.exit14
  %45 = ptrtoint ptr %1 to i64
  %46 = and i64 %45, 1
  %.not28 = icmp eq i64 %46, 0
  br i1 %.not28, label %47, label %lean_dec.exit

47:                                               ; preds = %lean_dec.exit13
  %48 = load i32, ptr %1, align 4, !tbaa !4
  %49 = icmp sgt i32 %48, 1
  br i1 %49, label %50, label %52, !prof !11

50:                                               ; preds = %47
  %51 = add nsw i32 %48, -1
  store i32 %51, ptr %1, align 4, !tbaa !4
  br label %lean_dec.exit

52:                                               ; preds = %47
  %.not.i23 = icmp eq i32 %48, 0
  br i1 %.not.i23, label %lean_dec.exit, label %53

53:                                               ; preds = %52
  tail call void @lean_dec_ref_cold(ptr noundef nonnull %1) #3
  br label %lean_dec.exit

lean_dec.exit:                                    ; preds = %53, %52, %50, %lean_dec.exit13
  ret ptr %8
}